; ModuleID = '54/118.cpp'
source_filename = "54/118.cpp"
target datalayout = "e-m:e-p270:32:32-p271:32:32-p272:64:64-i64:64-f80:128-n8:16:32:64-S128"
target triple = "x86_64-pc-linux-gnu"

%"class.std::ios_base::Init" = type { i8 }
%"class.std::basic_istream" = type { i32 (...)**, i64, %"class.std::basic_ios" }
%"class.std::basic_ios" = type { %"class.std::ios_base", %"class.std::basic_ostream"*, i8, i8, %"class.std::basic_streambuf"*, %"class.std::ctype"*, %"class.std::num_put"*, %"class.std::num_get"* }
%"class.std::ios_base" = type { i32 (...)**, i64, i64, i32, i32, i32, %"struct.std::ios_base::_Callback_list"*, %"struct.std::ios_base::_Words", [8 x %"struct.std::ios_base::_Words"], i32, %"struct.std::ios_base::_Words"*, %"class.std::locale" }
%"struct.std::ios_base::_Callback_list" = type { %"struct.std::ios_base::_Callback_list"*, void (i32, %"class.std::ios_base"*, i32)*, i32, i32 }
%"struct.std::ios_base::_Words" = type { i8*, i64 }
%"class.std::locale" = type { %"class.std::locale::_Impl"* }
%"class.std::locale::_Impl" = type { i32, %"class.std::locale::facet"**, i64, %"class.std::locale::facet"**, i8** }
%"class.std::locale::facet" = type <{ i32 (...)**, i32, [4 x i8] }>
%"class.std::basic_ostream" = type { i32 (...)**, %"class.std::basic_ios" }
%"class.std::basic_streambuf" = type { i32 (...)**, i8*, i8*, i8*, i8*, i8*, i8*, %"class.std::locale" }
%"class.std::ctype" = type <{ %"class.std::locale::facet.base", [4 x i8], %struct.__locale_struct*, i8, [7 x i8], i32*, i32*, i16*, i8, [256 x i8], [256 x i8], i8, [6 x i8] }>
%"class.std::locale::facet.base" = type <{ i32 (...)**, i32 }>
%struct.__locale_struct = type { [13 x %struct.__locale_data*], i16*, i32*, i32*, [13 x i8*] }
%struct.__locale_data = type opaque
%"class.std::num_put" = type { %"class.std::locale::facet.base", [4 x i8] }
%"class.std::num_get" = type { %"class.std::locale::facet.base", [4 x i8] }

@_ZStL8__ioinit = internal global %"class.std::ios_base::Init" zeroinitializer, align 1
@__dso_handle = external hidden global i8
@m = dso_local global i64 0, align 8
@n = dso_local global i32 0, align 4
@k = dso_local global i32 0, align 4
@_ZSt3cin = external dso_local global %"class.std::basic_istream", align 8
@_ZSt4cout = external dso_local global %"class.std::basic_ostream", align 8
@llvm.global_ctors = appending global [1 x { i32, void ()*, i8* }] [{ i32, void ()*, i8* } { i32 65535, void ()* @_GLOBAL__sub_I_118.cpp, i8* null }]

; Function Attrs: noinline uwtable
define internal void @__cxx_global_var_init() #0 section ".text.startup" {
  call void @_ZNSt8ios_base4InitC1Ev(%"class.std::ios_base::Init"* @_ZStL8__ioinit)
  %1 = call i32 @__cxa_atexit(void (i8*)* bitcast (void (%"class.std::ios_base::Init"*)* @_ZNSt8ios_base4InitD1Ev to void (i8*)*), i8* getelementptr inbounds (%"class.std::ios_base::Init", %"class.std::ios_base::Init"* @_ZStL8__ioinit, i32 0, i32 0), i8* @__dso_handle) #3
  ret void
}

declare dso_local void @_ZNSt8ios_base4InitC1Ev(%"class.std::ios_base::Init"*) unnamed_addr #1

; Function Attrs: nounwind
declare dso_local void @_ZNSt8ios_base4InitD1Ev(%"class.std::ios_base::Init"*) unnamed_addr #2

; Function Attrs: nounwind
declare dso_local i32 @__cxa_atexit(void (i8*)*, i8*, i8*) #3

; Function Attrs: noinline nounwind uwtable
define dso_local i32 @_Z2okl(i64 %0) #4 {
  %2 = alloca i32, align 4
  %3 = alloca i64, align 8
  %4 = alloca i32, align 4
  store i64 %0, i64* %3, align 8
  store i32 1, i32* %4, align 4
  br label %5

5:                                                ; preds = %42, %1
  %6 = load i32, i32* %4, align 4
  %7 = load i32, i32* @n, align 4
  %8 = icmp sle i32 %6, %7
  br i1 %8, label %9, label %45

9:                                                ; preds = %5
  %10 = load i64, i64* %3, align 8
  %11 = load i32, i32* @k, align 4
  %12 = sext i32 %11 to i64
  %13 = sub nsw i64 %10, %12
  %14 = load i32, i32* @n, align 4
  %15 = sext i32 %14 to i64
  %16 = srem i64 %13, %15
  %17 = icmp ne i64 %16, 0
  br i1 %17, label %18, label %19

18:                                               ; preds = %9
  store i32 0, i32* %2, align 4
  br label %46

19:                                               ; preds = %9
  %20 = load i64, i64* %3, align 8
  %21 = load i32, i32* @k, align 4
  %22 = sext i32 %21 to i64
  %23 = sub nsw i64 %20, %22
  %24 = load i32, i32* @n, align 4
  %25 = sext i32 %24 to i64
  %26 = sdiv i64 %23, %25
  %27 = icmp eq i64 %26, 0
  br i1 %27, label %28, label %29

28:                                               ; preds = %19
  store i32 0, i32* %2, align 4
  br label %46

29:                                               ; preds = %19
  br label %30

30:                                               ; preds = %29
  %31 = load i64, i64* %3, align 8
  %32 = load i32, i32* @k, align 4
  %33 = sext i32 %32 to i64
  %34 = sub nsw i64 %31, %33
  %35 = load i32, i32* @n, align 4
  %36 = sext i32 %35 to i64
  %37 = sdiv i64 %34, %36
  %38 = load i32, i32* @n, align 4
  %39 = sub nsw i32 %38, 1
  %40 = sext i32 %39 to i64
  %41 = mul nsw i64 %37, %40
  store i64 %41, i64* %3, align 8
  br label %42

42:                                               ; preds = %30
  %43 = load i32, i32* %4, align 4
  %44 = add nsw i32 %43, 1
  store i32 %44, i32* %4, align 4
  br label %5

45:                                               ; preds = %5
  store i32 1, i32* %2, align 4
  br label %46

46:                                               ; preds = %45, %28, %18
  %47 = load i32, i32* %2, align 4
  ret i32 %47
}

; Function Attrs: noinline norecurse uwtable
define dso_local i32 @main() #5 {
  %1 = alloca i32, align 4
  store i32 0, i32* %1, align 4
  %2 = call dereferenceable(280) %"class.std::basic_istream"* @_ZNSirsERi(%"class.std::basic_istream"* @_ZSt3cin, i32* dereferenceable(4) @n)
  %3 = call dereferenceable(280) %"class.std::basic_istream"* @_ZNSirsERi(%"class.std::basic_istream"* %2, i32* dereferenceable(4) @k)
  %4 = load i32, i32* @k, align 4
  %5 = sext i32 %4 to i64
  store i64 %5, i64* @m, align 8
  br label %6

6:                                                ; preds = %0, %18
  %7 = load i32, i32* @n, align 4
  %8 = sext i32 %7 to i64
  %9 = load i64, i64* @m, align 8
  %10 = add nsw i64 %9, %8
  store i64 %10, i64* @m, align 8
  %11 = load i64, i64* @m, align 8
  %12 = call i32 @_Z2okl(i64 %11)
  %13 = icmp ne i32 %12, 0
  br i1 %13, label %14, label %18

14:                                               ; preds = %6
  %15 = load i64, i64* @m, align 8
  %16 = call dereferenceable(272) %"class.std::basic_ostream"* @_ZNSolsEl(%"class.std::basic_ostream"* @_ZSt4cout, i64 %15)
  %17 = call dereferenceable(272) %"class.std::basic_ostream"* @_ZNSolsEPFRSoS_E(%"class.std::basic_ostream"* %16, %"class.std::basic_ostream"* (%"class.std::basic_ostream"*)* @_ZSt4endlIcSt11char_traitsIcEERSt13basic_ostreamIT_T0_ES6_)
  ret i32 0

18:                                               ; preds = %6
  br label %6
}

declare dso_local dereferenceable(280) %"class.std::basic_istream"* @_ZNSirsERi(%"class.std::basic_istream"*, i32* dereferenceable(4)) #1

declare dso_local dereferenceable(272) %"class.std::basic_ostream"* @_ZNSolsEl(%"class.std::basic_ostream"*, i64) #1

declare dso_local dereferenceable(272) %"class.std::basic_ostream"* @_ZNSolsEPFRSoS_E(%"class.std::basic_ostream"*, %"class.std::basic_ostream"* (%"class.std::basic_ostream"*)*) #1

declare dso_local dereferenceable(272) %"class.std::basic_ostream"* @_ZSt4endlIcSt11char_traitsIcEERSt13basic_ostreamIT_T0_ES6_(%"class.std::basic_ostream"* dereferenceable(272)) #1

; Function Attrs: noinline uwtable
define internal void @_GLOBAL__sub_I_118.cpp() #0 section ".text.startup" {
  call void @__cxx_global_var_init()
  ret void
}


!llvm.module.flags = !{!0}
!llvm.ident = !{!1}

!0 = !{i32 1, !"wchar_size", i32 4}
!1 = !{!"clang version 10.0.0-4ubuntu1 "}
